target datalayout = "e-m:e-p270:32:32-p271:32:32-p272:64:64-i64:64-i128:128-f80:128-n8:16:32:64-S128"
target triple = "x86_64-pc-linux-gnu"

%struct.pm_node = type { i16, i16, i32, %struct.pm_location_t }
%struct.pm_location_t = type { ptr, ptr }
%struct.pm_integer_t = type { i64, ptr, i32, i8 }
%struct.pm_float_node = type { %struct.pm_node, double }
%struct.pm_imaginary_node = type { %struct.pm_node, ptr }
%struct.pm_rational_node = type { %struct.pm_node, %struct.pm_integer_t, %struct.pm_integer_t }

; Function Attrs: nounwind sspstrong uwtable
define internal i32 @pm_compare_float_nodes(ptr noundef %0, ptr noundef %1, ptr noundef %2) #0 {
  %4 = alloca ptr, align 8
  %5 = alloca ptr, align 8
  %6 = alloca ptr, align 8
  %7 = alloca double, align 8
  %8 = alloca double, align 8
  store ptr %0, ptr %4, align 8, !tbaa !7
  store ptr %1, ptr %5, align 8, !tbaa !13
  store ptr %2, ptr %6, align 8, !tbaa !13
  call void @llvm.lifetime.start.p0(i64 8, ptr %7) #9
  %9 = load ptr, ptr %5, align 8, !tbaa !13
  %10 = getelementptr inbounds nuw %struct.pm_float_node, ptr %9, i32 0, i32 1
  %11 = load double, ptr %10, align 8, !tbaa !44
  store double %11, ptr %7, align 8, !tbaa !47
  call void @llvm.lifetime.start.p0(i64 8, ptr %8) #9
  %12 = load ptr, ptr %6, align 8, !tbaa !13
  %13 = getelementptr inbounds nuw %struct.pm_float_node, ptr %12, i32 0, i32 1
  %14 = load double, ptr %13, align 8, !tbaa !44
  store double %14, ptr %8, align 8, !tbaa !47
  %15 = load double, ptr %7, align 8, !tbaa !47
  %16 = load double, ptr %8, align 8, !tbaa !47
  %17 = fcmp olt double %15, %16
  br i1 %17, label %18, label %19

18:                                               ; preds = %3
  br label %24

19:                                               ; preds = %3
  %20 = load double, ptr %7, align 8, !tbaa !47
  %21 = load double, ptr %8, align 8, !tbaa !47
  %22 = fcmp ogt double %20, %21
  %23 = select i1 %22, i32 1, i32 0
  br label %24

24:                                               ; preds = %19, %18
  %25 = phi i32 [ -1, %18 ], [ %23, %19 ]
  call void @llvm.lifetime.end.p0(i64 8, ptr %8) #9
  call void @llvm.lifetime.end.p0(i64 8, ptr %7) #9
  ret i32 %25
}

; Function Attrs: nounwind sspstrong uwtable
define internal i32 @pm_compare_number_nodes(ptr noundef %0, ptr noundef %1, ptr noundef %2) #0 {
  %4 = alloca i32, align 4
  %5 = alloca ptr, align 8
  %6 = alloca ptr, align 8
  %7 = alloca ptr, align 8
  %8 = alloca ptr, align 8
  %9 = alloca ptr, align 8
  %10 = alloca i32, align 4
  %11 = alloca i32, align 4
  store ptr %0, ptr %5, align 8, !tbaa !7
  store ptr %1, ptr %6, align 8, !tbaa !13
  store ptr %2, ptr %7, align 8, !tbaa !13
  %12 = load ptr, ptr %6, align 8, !tbaa !13
  %13 = getelementptr inbounds nuw %struct.pm_node, ptr %12, i32 0, i32 0
  %14 = load i16, ptr %13, align 8, !tbaa !17
  %15 = zext i16 %14 to i32
  %16 = load ptr, ptr %7, align 8, !tbaa !13
  %17 = getelementptr inbounds nuw %struct.pm_node, ptr %16, i32 0, i32 0
  %18 = load i16, ptr %17, align 8, !tbaa !17
  %19 = zext i16 %18 to i32
  %20 = icmp ne i32 %15, %19
  br i1 %20, label %21, label %45

21:                                               ; preds = %3
  %22 = load ptr, ptr %6, align 8, !tbaa !13
  %23 = getelementptr inbounds nuw %struct.pm_node, ptr %22, i32 0, i32 0
  %24 = load i16, ptr %23, align 8, !tbaa !17
  %25 = zext i16 %24 to i32
  %26 = load ptr, ptr %7, align 8, !tbaa !13
  %27 = getelementptr inbounds nuw %struct.pm_node, ptr %26, i32 0, i32 0
  %28 = load i16, ptr %27, align 8, !tbaa !17
  %29 = zext i16 %28 to i32
  %30 = icmp ult i32 %25, %29
  br i1 %30, label %31, label %32

31:                                               ; preds = %21
  br label %43

32:                                               ; preds = %21
  %33 = load ptr, ptr %6, align 8, !tbaa !13
  %34 = getelementptr inbounds nuw %struct.pm_node, ptr %33, i32 0, i32 0
  %35 = load i16, ptr %34, align 8, !tbaa !17
  %36 = zext i16 %35 to i32
  %37 = load ptr, ptr %7, align 8, !tbaa !13
  %38 = getelementptr inbounds nuw %struct.pm_node, ptr %37, i32 0, i32 0
  %39 = load i16, ptr %38, align 8, !tbaa !17
  %40 = zext i16 %39 to i32
  %41 = icmp ugt i32 %36, %40
  %42 = select i1 %41, i32 1, i32 0
  br label %43

43:                                               ; preds = %32, %31
  %44 = phi i32 [ -1, %31 ], [ %42, %32 ]
  store i32 %44, ptr %4, align 4
  br label %89

45:                                               ; preds = %3
  %46 = load ptr, ptr %6, align 8, !tbaa !13
  %47 = getelementptr inbounds nuw %struct.pm_node, ptr %46, i32 0, i32 0
  %48 = load i16, ptr %47, align 8, !tbaa !17
  %49 = zext i16 %48 to i32
  switch i32 %49, label %88 [
    i32 68, label %50
    i32 123, label %59
    i32 82, label %78
    i32 54, label %83
  ]

50:                                               ; preds = %45
  %51 = load ptr, ptr %5, align 8, !tbaa !7
  %52 = load ptr, ptr %6, align 8, !tbaa !13
  %53 = getelementptr inbounds nuw %struct.pm_imaginary_node, ptr %52, i32 0, i32 1
  %54 = load ptr, ptr %53, align 8, !tbaa !48
  %55 = load ptr, ptr %7, align 8, !tbaa !13
  %56 = getelementptr inbounds nuw %struct.pm_imaginary_node, ptr %55, i32 0, i32 1
  %57 = load ptr, ptr %56, align 8, !tbaa !48
  %58 = call i32 @pm_compare_number_nodes(ptr noundef %51, ptr noundef %54, ptr noundef %57)
  store i32 %58, ptr %4, align 4
  br label %89

59:                                               ; preds = %45
  call void @llvm.lifetime.start.p0(i64 8, ptr %8) #9
  %60 = load ptr, ptr %6, align 8, !tbaa !13
  store ptr %60, ptr %8, align 8, !tbaa !50
  call void @llvm.lifetime.start.p0(i64 8, ptr %9) #9
  %61 = load ptr, ptr %7, align 8, !tbaa !13
  store ptr %61, ptr %9, align 8, !tbaa !50
  call void @llvm.lifetime.start.p0(i64 4, ptr %10) #9
  %62 = load ptr, ptr %8, align 8, !tbaa !50
  %63 = getelementptr inbounds nuw %struct.pm_rational_node, ptr %62, i32 0, i32 2
  %64 = load ptr, ptr %9, align 8, !tbaa !50
  %65 = getelementptr inbounds nuw %struct.pm_rational_node, ptr %64, i32 0, i32 2
  %66 = call i32 @pm_integer_compare(ptr noundef %63, ptr noundef %65)
  store i32 %66, ptr %10, align 4, !tbaa !11
  %67 = load i32, ptr %10, align 4, !tbaa !11
  %68 = icmp ne i32 %67, 0
  br i1 %68, label %69, label %71

69:                                               ; preds = %59
  %70 = load i32, ptr %10, align 4, !tbaa !11
  store i32 %70, ptr %4, align 4
  store i32 1, ptr %11, align 4
  br label %77

71:                                               ; preds = %59
  %72 = load ptr, ptr %8, align 8, !tbaa !50
  %73 = getelementptr inbounds nuw %struct.pm_rational_node, ptr %72, i32 0, i32 1
  %74 = load ptr, ptr %9, align 8, !tbaa !50
  %75 = getelementptr inbounds nuw %struct.pm_rational_node, ptr %74, i32 0, i32 1
  %76 = call i32 @pm_integer_compare(ptr noundef %73, ptr noundef %75)
  store i32 %76, ptr %4, align 4
  store i32 1, ptr %11, align 4
  br label %77

77:                                               ; preds = %71, %69
  call void @llvm.lifetime.end.p0(i64 4, ptr %10) #9
  call void @llvm.lifetime.end.p0(i64 8, ptr %9) #9
  call void @llvm.lifetime.end.p0(i64 8, ptr %8) #9
  br label %89

78:                                               ; preds = %45
  %79 = load ptr, ptr %5, align 8, !tbaa !7
  %80 = load ptr, ptr %6, align 8, !tbaa !13
  %81 = load ptr, ptr %7, align 8, !tbaa !13
  %82 = call i32 @pm_compare_integer_nodes(ptr noundef %79, ptr noundef %80, ptr noundef %81)
  store i32 %82, ptr %4, align 4
  br label %89

83:                                               ; preds = %45
  %84 = load ptr, ptr %5, align 8, !tbaa !7
  %85 = load ptr, ptr %6, align 8, !tbaa !13
  %86 = load ptr, ptr %7, align 8, !tbaa !13
  %87 = call i32 @pm_compare_float_nodes(ptr noundef %84, ptr noundef %85, ptr noundef %86)
  store i32 %87, ptr %4, align 4
  br label %89

88:                                               ; preds = %45
  store i32 0, ptr %4, align 4
  br label %89

89:                                               ; preds = %88, %83, %78, %77, %50, %43
  %90 = load i32, ptr %4, align 4
  ret i32 %90
}