; Function Attrs: nounwind sspstrong uwtable
define internal i32 @pm_compare_number_nodes(ptr noundef readonly captures(none) %0, ptr noundef %1, ptr noundef %2) #0 {
  %4 = load i16, ptr %1, align 8, !tbaa !7
  %5 = load i16, ptr %2, align 8, !tbaa !7
  %.not47 = icmp eq i16 %4, %5
  br i1 %.not47, label %.lr.ph, label %tailrecurse._crit_edge

tailrecurse._crit_edge:                           ; preds = %tailrecurse, %3
  %.lcssa34 = phi i16 [ %4, %3 ], [ %12, %tailrecurse ]
  %.lcssa = phi i16 [ %5, %3 ], [ %13, %tailrecurse ]
  %6 = tail call i32 @llvm.ucmp.i32.i16(i16 %.lcssa34, i16 %.lcssa)
  br label %.loopexit

.lr.ph:                                           ; preds = %3, %tailrecurse
  %7 = phi i16 [ %12, %tailrecurse ], [ %4, %3 ]
  %.tr2949 = phi ptr [ %11, %tailrecurse ], [ %2, %3 ]
  %.tr2848 = phi ptr [ %9, %tailrecurse ], [ %1, %3 ]
  switch i16 %7, label %.loopexit [
    i16 68, label %tailrecurse
    i16 123, label %14
    i16 82, label %22
    i16 54, label %24
  ]

tailrecurse:                                      ; preds = %.lr.ph
  %8 = getelementptr inbounds nuw i8, ptr %.tr2848, i64 24
  %9 = load ptr, ptr %8, align 8, !tbaa !48
  %10 = getelementptr inbounds nuw i8, ptr %.tr2949, i64 24
  %11 = load ptr, ptr %10, align 8, !tbaa !48
  %12 = load i16, ptr %9, align 8, !tbaa !7
  %13 = load i16, ptr %11, align 8, !tbaa !7
  %.not = icmp eq i16 %12, %13
  br i1 %.not, label %.lr.ph, label %tailrecurse._crit_edge

14:                                               ; preds = %.lr.ph
  %15 = getelementptr inbounds nuw i8, ptr %.tr2848, i64 48
  %16 = getelementptr inbounds nuw i8, ptr %.tr2949, i64 48
  %17 = tail call i32 @pm_integer_compare(ptr noundef nonnull %15, ptr noundef nonnull %16) #9
  %.not27 = icmp eq i32 %17, 0
  br i1 %.not27, label %18, label %.loopexit

18:                                               ; preds = %14
  %19 = getelementptr inbounds nuw i8, ptr %.tr2848, i64 24
  %20 = getelementptr inbounds nuw i8, ptr %.tr2949, i64 24
  %21 = tail call i32 @pm_integer_compare(ptr noundef nonnull %19, ptr noundef nonnull %20) #9
  br label %.loopexit

22:                                               ; preds = %.lr.ph
  %23 = tail call i32 @pm_compare_integer_nodes(ptr noundef %0, ptr noundef nonnull %.tr2848, ptr noundef nonnull %.tr2949)
  br label %.loopexit

24:                                               ; preds = %.lr.ph
  %25 = getelementptr inbounds nuw i8, ptr %.tr2848, i64 24
  %26 = load double, ptr %25, align 8, !tbaa !29
  %27 = getelementptr inbounds nuw i8, ptr %.tr2949, i64 24
  %28 = load double, ptr %27, align 8, !tbaa !29
  %29 = fcmp olt double %26, %28
  %30 = fcmp ogt double %26, %28
  %31 = zext i1 %30 to i32
  %32 = select i1 %29, i32 -1, i32 %31
  br label %.loopexit

.loopexit:                                        ; preds = %.lr.ph, %18, %14, %24, %22, %tailrecurse._crit_edge
  %.0 = phi i32 [ %6, %tailrecurse._crit_edge ], [ %32, %24 ], [ %23, %22 ], [ %21, %18 ], [ %17, %14 ], [ 0, %.lr.ph ]
  ret i32 %.0
}